; Function Attrs: mustprogress uwtable
define noundef i32 @_ZN3zmq8client_t5xsendEPNS_5msg_tE(ptr noundef nonnull align 8 dereferenceable(1928) %0, ptr noundef nonnull %1) unnamed_addr #0 align 2 {
  %3 = tail call noundef zeroext i8 @_ZNK3zmq5msg_t5flagsEv(ptr noundef nonnull align 8 dereferenceable(64) %1)
  %4 = and i8 %3, 1
  %.not = icmp eq i8 %4, 0
  br i1 %.not, label %7, label %5

5:                                                ; preds = %2
  %6 = tail call ptr @__errno_location() #12
  store i32 22, ptr %6, align 4, !tbaa !65
  br label %10

7:                                                ; preds = %2
  %8 = getelementptr inbounds nuw i8, ptr %0, i64 1880
  %9 = tail call noundef i32 @_ZN3zmq4lb_t8sendpipeEPNS_5msg_tEPPNS_6pipe_tE(ptr noundef nonnull align 8 dereferenceable(42) %8, ptr noundef nonnull %1, ptr noundef null)
  br label %10

10:                                               ; preds = %7, %5
  %.0 = phi i32 [ -1, %5 ], [ %9, %7 ]
  ret i32 %.0
}